; Function Attrs: mustprogress uwtable
define dso_local noundef ptr @_ZN5State14SpellcheckNodeERKNSt7__cxx1112basic_stringIcSt11char_traitsIcESaIcEEE(ptr nocapture noundef nonnull readonly align 8 dereferenceable(264) %0, ptr noundef nonnull align 8 dereferenceable(32) %1) local_unnamed_addr #1 align 2 {
  %3 = alloca %struct.StringPiece, align 8
  %4 = getelementptr inbounds i8, ptr %0, i64 16
  %.sroa.08.015 = load ptr, ptr %4, align 8
  %.not1416 = icmp eq ptr %.sroa.08.015, null
  br i1 %.not1416, label %._crit_edge, label %.lr.ph

.lr.ph:                                           ; preds = %2
  %5 = getelementptr inbounds i8, ptr %3, i64 8
  br label %6

6:                                                ; preds = %.lr.ph, %15
  %.sroa.08.019 = phi ptr [ %.sroa.08.015, %.lr.ph ], [ %.sroa.08.0, %15 ]
  %.018 = phi i32 [ 4, %.lr.ph ], [ %.1, %15 ]
  %.0517 = phi ptr [ null, %.lr.ph ], [ %.16, %15 ]
  %7 = getelementptr inbounds i8, ptr %.sroa.08.019, i64 8
  %8 = call noundef ptr @_ZNKSt7__cxx1112basic_stringIcSt11char_traitsIcESaIcEE4dataEv(ptr noundef nonnull align 8 dereferenceable(32) %1) #21
  store ptr %8, ptr %3, align 8
  %9 = call noundef i64 @_ZNKSt7__cxx1112basic_stringIcSt11char_traitsIcESaIcEE4sizeEv(ptr noundef nonnull align 8 dereferenceable(32) %1) #21
  store i64 %9, ptr %5, align 8
  %10 = call noundef i32 @_Z12EditDistanceRK11StringPieceS1_bi(ptr noundef nonnull align 8 dereferenceable(16) %7, ptr noundef nonnull align 8 dereferenceable(16) %3, i1 noundef zeroext true, i32 noundef 3)
  %11 = icmp slt i32 %10, %.018
  br i1 %11, label %12, label %15

12:                                               ; preds = %6
  %13 = getelementptr inbounds i8, ptr %.sroa.08.019, i64 24
  %14 = load ptr, ptr %13, align 8
  %.not = icmp eq ptr %14, null
  %spec.select = select i1 %.not, ptr %.0517, ptr %14
  %spec.select13 = select i1 %.not, i32 %.018, i32 %10
  br label %15

15:                                               ; preds = %12, %6
  %.16 = phi ptr [ %.0517, %6 ], [ %spec.select, %12 ]
  %.1 = phi i32 [ %.018, %6 ], [ %spec.select13, %12 ]
  %.sroa.08.0 = load ptr, ptr %.sroa.08.019, align 8
  %.not14 = icmp eq ptr %.sroa.08.0, null
  br i1 %.not14, label %._crit_edge, label %6, !llvm.loop !15

._crit_edge:                                      ; preds = %15, %2
  %.05.lcssa = phi ptr [ null, %2 ], [ %.16, %15 ]
  ret ptr %.05.lcssa
}